; Function Attrs: nounwind sspstrong uwtable
define internal i64 @builtin_inline_class_387(ptr readnone captures(none) %0, i64 %1) #0 {
  %3 = load ptr, ptr @ruby_current_vm_ptr, align 8, !tbaa !62
  %4 = getelementptr inbounds nuw i8, ptr %3, i64 1296
  %5 = load ptr, ptr %4, align 8, !tbaa !63
  %6 = getelementptr i8, ptr %5, i64 1016
  %.val = load i64, ptr %6, align 8, !tbaa !393
  %7 = getelementptr i8, ptr %5, i64 1040
  %.val1 = load i64, ptr %7, align 8, !tbaa !394
  %8 = add i64 %.val1, %.val
  %9 = icmp ult i64 %8, 4611686018427387904
  br i1 %9, label %10, label %13

10:                                               ; preds = %2
  %11 = shl nuw nsw i64 %8, 1
  %12 = or disjoint i64 %11, 1
  br label %rb_ull2num_inline.exit

13:                                               ; preds = %2
  %14 = tail call i64 @rb_ull2inum(i64 noundef %8) #7
  br label %rb_ull2num_inline.exit

rb_ull2num_inline.exit:                           ; preds = %10, %13
  %.0.i = phi i64 [ %12, %10 ], [ %14, %13 ]
  ret i64 %.0.i
}